; Function Attrs: mustprogress nounwind uwtable
define dso_local range(i64 0, 8589934592) i64 @_ZNK4llvm12RISCVTTIImpl12getMaxVScaleEv(ptr nocapture noundef nonnull readonly align 8 dereferenceable(32) %0) local_unnamed_addr #0 align 2 {
  %2 = getelementptr inbounds nuw i8, ptr %0, i64 16
  %3 = load ptr, ptr %2, align 8
  %4 = getelementptr inbounds nuw i8, ptr %3, i64 421
  %5 = load i8, ptr %4, align 1
  %6 = trunc i8 %5 to i1
  br i1 %6, label %7, label %13

7:                                                ; preds = %1
  %8 = tail call noundef i32 @_ZNK4llvm14RISCVSubtarget25getMaxRVVVectorSizeInBitsEv(ptr noundef nonnull align 8 dereferenceable(409192) %3) #21
  %9 = icmp eq i32 %8, 0
  %10 = lshr i32 %8, 6
  %11 = select i1 %9, i32 1024, i32 %10
  %12 = zext nneg i32 %11 to i64
  br label %13

13:                                               ; preds = %1, %7
  %.sroa.0.0 = phi i64 [ %12, %7 ], [ 0, %1 ]
  %.sroa.3.0 = phi i64 [ 4294967296, %7 ], [ 0, %1 ]
  %.sroa.0.0.insert.insert = or disjoint i64 %.sroa.3.0, %.sroa.0.0
  ret i64 %.sroa.0.0.insert.insert
}